target datalayout = "e-m:e-p270:32:32-p271:32:32-p272:64:64-i64:64-i128:128-f80:128-n8:16:32:64-S128"
target triple = "x86_64-pc-linux-gnu"

%struct.anon = type { ptr, i32 }

@.str.41 = private unnamed_addr constant [6 x i8] c"level\00", align 1
@.str.59 = private unnamed_addr constant [30 x i8] c"Assertion %s failed at %s:%d\0A\00", align 1
@.str.60 = private unnamed_addr constant [4 x i8] c"arg\00", align 1
@.str.61 = private unnamed_addr constant [21 x i8] c"fftools/opt_common.c\00", align 1
@.str.62 = private unnamed_addr constant [7 x i8] c"repeat\00", align 1
@.str.63 = private unnamed_addr constant [5 x i8] c"time\00", align 1
@.str.64 = private unnamed_addr constant [9 x i8] c"datetime\00", align 1
@.str.65 = private unnamed_addr constant [56 x i8] c"Invalid loglevel \22%s\22. Possible levels are numbers or:\0A\00", align 1
@.str.66 = private unnamed_addr constant [6 x i8] c"\22%s\22\0A\00", align 1
@.str.67 = private unnamed_addr constant [21 x i8] c"Possible flags are:\0A\00", align 1
@.str.68 = private unnamed_addr constant [10 x i8] c"\22repeat\22\0A\00", align 1
@.str.69 = private unnamed_addr constant [9 x i8] c"\22level\22\0A\00", align 1
@.str.70 = private unnamed_addr constant [8 x i8] c"\22time\22\0A\00", align 1
@.str.71 = private unnamed_addr constant [12 x i8] c"\22datetime\22\0A\00", align 1

; Function Attrs: nounwind uwtable
define i32 @opt_loglevel(ptr noundef %0, ptr noundef %1, ptr noundef %2) #0 {
  %4 = alloca i32, align 4
  %5 = alloca ptr, align 8
  %6 = alloca ptr, align 8
  %7 = alloca ptr, align 8
  %8 = alloca [9 x %struct.anon], align 16
  %9 = alloca ptr, align 8
  %10 = alloca ptr, align 8
  %11 = alloca i32, align 4
  %12 = alloca i32, align 4
  %13 = alloca i32, align 4
  %14 = alloca i32, align 4
  %15 = alloca i32, align 4
  store ptr %0, ptr %5, align 8, !tbaa !4
  store ptr %1, ptr %6, align 8, !tbaa !8
  store ptr %2, ptr %7, align 8, !tbaa !8
  call void @llvm.lifetime.start.p0(i64 144, ptr %8) #11
  call void @llvm.memcpy.p0.p0.i64(ptr align 16 %8, ptr align 16 @__const.opt_loglevel.log_levels, i64 144, i1 false)
  call void @llvm.lifetime.start.p0(i64 8, ptr %9) #11
  call void @llvm.lifetime.start.p0(i64 8, ptr %10) #11
  call void @llvm.lifetime.start.p0(i64 4, ptr %11) #11
  %16 = call i32 @av_log_get_flags()
  store i32 %16, ptr %11, align 4, !tbaa !10
  call void @llvm.lifetime.start.p0(i64 4, ptr %12) #11
  %17 = call i32 @av_log_get_level()
  store i32 %17, ptr %12, align 4, !tbaa !10
  call void @llvm.lifetime.start.p0(i64 4, ptr %13) #11
  call void @llvm.lifetime.start.p0(i64 4, ptr %14) #11
  store i32 0, ptr %14, align 4, !tbaa !10
  br label %18

18:                                               ; preds = %3
  %19 = load ptr, ptr %7, align 8, !tbaa !8
  %20 = icmp ne ptr %19, null
  br i1 %20, label %22, label %21

21:                                               ; preds = %18
  call void (ptr, i32, ptr, ...) @av_log(ptr noundef null, i32 noundef 0, ptr noundef @.str.59, ptr noundef @.str.60, ptr noundef @.str.61, i32 noundef 1269)
  call void @abort() #13
  unreachable

22:                                               ; preds = %18
  br label %23

23:                                               ; preds = %22
  br label %24

24:                                               ; preds = %23
  br label %25

25:                                               ; preds = %113, %24
  %26 = load ptr, ptr %7, align 8, !tbaa !8
  %27 = load i8, ptr %26, align 1, !tbaa !17
  %28 = icmp ne i8 %27, 0
  br i1 %28, label %29, label %116

29:                                               ; preds = %25
  %30 = load ptr, ptr %7, align 8, !tbaa !8
  store ptr %30, ptr %9, align 8, !tbaa !8
  %31 = load ptr, ptr %9, align 8, !tbaa !8
  %32 = load i8, ptr %31, align 1, !tbaa !17
  %33 = sext i8 %32 to i32
  %34 = icmp eq i32 %33, 43
  br i1 %34, label %40, label %35

35:                                               ; preds = %29
  %36 = load ptr, ptr %9, align 8, !tbaa !8
  %37 = load i8, ptr %36, align 1, !tbaa !17
  %38 = sext i8 %37 to i32
  %39 = icmp eq i32 %38, 45
  br i1 %39, label %40, label %45

40:                                               ; preds = %35, %29
  %41 = load ptr, ptr %9, align 8, !tbaa !8
  %42 = getelementptr inbounds nuw i8, ptr %41, i32 1
  store ptr %42, ptr %9, align 8, !tbaa !8
  %43 = load i8, ptr %41, align 1, !tbaa !17
  %44 = sext i8 %43 to i32
  store i32 %44, ptr %13, align 4, !tbaa !10
  br label %46

45:                                               ; preds = %35
  store i32 0, ptr %13, align 4, !tbaa !10
  br label %46

46:                                               ; preds = %45, %40
  %47 = load i32, ptr %14, align 4, !tbaa !10
  %48 = icmp ne i32 %47, 0
  br i1 %48, label %53, label %49

49:                                               ; preds = %46
  %50 = load i32, ptr %13, align 4, !tbaa !10
  %51 = icmp ne i32 %50, 0
  br i1 %51, label %53, label %52

52:                                               ; preds = %49
  store i32 0, ptr %11, align 4, !tbaa !10
  br label %53

53:                                               ; preds = %52, %49, %46
  %54 = load ptr, ptr %9, align 8, !tbaa !8
  %55 = call i32 @av_strstart(ptr noundef %54, ptr noundef @.str.62, ptr noundef %7)
  %56 = icmp ne i32 %55, 0
  br i1 %56, label %57, label %67

57:                                               ; preds = %53
  %58 = load i32, ptr %13, align 4, !tbaa !10
  %59 = icmp eq i32 %58, 45
  br i1 %59, label %60, label %63

60:                                               ; preds = %57
  %61 = load i32, ptr %11, align 4, !tbaa !10
  %62 = or i32 %61, 1
  store i32 %62, ptr %11, align 4, !tbaa !10
  br label %66

63:                                               ; preds = %57
  %64 = load i32, ptr %11, align 4, !tbaa !10
  %65 = and i32 %64, -2
  store i32 %65, ptr %11, align 4, !tbaa !10
  br label %66

66:                                               ; preds = %63, %60
  br label %113

67:                                               ; preds = %53
  %68 = load ptr, ptr %9, align 8, !tbaa !8
  %69 = call i32 @av_strstart(ptr noundef %68, ptr noundef @.str.41, ptr noundef %7)
  %70 = icmp ne i32 %69, 0
  br i1 %70, label %71, label %81

71:                                               ; preds = %67
  %72 = load i32, ptr %13, align 4, !tbaa !10
  %73 = icmp eq i32 %72, 45
  br i1 %73, label %74, label %77

74:                                               ; preds = %71
  %75 = load i32, ptr %11, align 4, !tbaa !10
  %76 = and i32 %75, -3
  store i32 %76, ptr %11, align 4, !tbaa !10
  br label %80

77:                                               ; preds = %71
  %78 = load i32, ptr %11, align 4, !tbaa !10
  %79 = or i32 %78, 2
  store i32 %79, ptr %11, align 4, !tbaa !10
  br label %80

80:                                               ; preds = %77, %74
  br label %112

81:                                               ; preds = %67
  %82 = load ptr, ptr %9, align 8, !tbaa !8
  %83 = call i32 @av_strstart(ptr noundef %82, ptr noundef @.str.63, ptr noundef %7)
  %84 = icmp ne i32 %83, 0
  br i1 %84, label %85, label %95

85:                                               ; preds = %81
  %86 = load i32, ptr %13, align 4, !tbaa !10
  %87 = icmp eq i32 %86, 45
  br i1 %87, label %88, label %91

88:                                               ; preds = %85
  %89 = load i32, ptr %11, align 4, !tbaa !10
  %90 = and i32 %89, -5
  store i32 %90, ptr %11, align 4, !tbaa !10
  br label %94

91:                                               ; preds = %85
  %92 = load i32, ptr %11, align 4, !tbaa !10
  %93 = or i32 %92, 4
  store i32 %93, ptr %11, align 4, !tbaa !10
  br label %94

94:                                               ; preds = %91, %88
  br label %111

95:                                               ; preds = %81
  %96 = load ptr, ptr %9, align 8, !tbaa !8
  %97 = call i32 @av_strstart(ptr noundef %96, ptr noundef @.str.64, ptr noundef %7)
  %98 = icmp ne i32 %97, 0
  br i1 %98, label %99, label %109

99:                                               ; preds = %95
  %100 = load i32, ptr %13, align 4, !tbaa !10
  %101 = icmp eq i32 %100, 45
  br i1 %101, label %102, label %105

102:                                              ; preds = %99
  %103 = load i32, ptr %11, align 4, !tbaa !10
  %104 = and i32 %103, -9
  store i32 %104, ptr %11, align 4, !tbaa !10
  br label %108

105:                                              ; preds = %99
  %106 = load i32, ptr %11, align 4, !tbaa !10
  %107 = or i32 %106, 8
  store i32 %107, ptr %11, align 4, !tbaa !10
  br label %108

108:                                              ; preds = %105, %102
  br label %110

109:                                              ; preds = %95
  br label %116

110:                                              ; preds = %108
  br label %111

111:                                              ; preds = %110, %94
  br label %112

112:                                              ; preds = %111, %80
  br label %113

113:                                              ; preds = %112, %66
  %114 = load i32, ptr %14, align 4, !tbaa !10
  %115 = add nsw i32 %114, 1
  store i32 %115, ptr %14, align 4, !tbaa !10
  br label %25, !llvm.loop !148

116:                                              ; preds = %109, %25
  %117 = load ptr, ptr %7, align 8, !tbaa !8
  %118 = load i8, ptr %117, align 1, !tbaa !17
  %119 = icmp ne i8 %118, 0
  br i1 %119, label %121, label %120

120:                                              ; preds = %116
  br label %184

121:                                              ; preds = %116
  %122 = load ptr, ptr %7, align 8, !tbaa !8
  %123 = load i8, ptr %122, align 1, !tbaa !17
  %124 = sext i8 %123 to i32
  %125 = icmp eq i32 %124, 43
  br i1 %125, label %126, label %129

126:                                              ; preds = %121
  %127 = load ptr, ptr %7, align 8, !tbaa !8
  %128 = getelementptr inbounds nuw i8, ptr %127, i32 1
  store ptr %128, ptr %7, align 8, !tbaa !8
  br label %135

129:                                              ; preds = %121
  %130 = load i32, ptr %14, align 4, !tbaa !10
  %131 = icmp ne i32 %130, 0
  br i1 %131, label %134, label %132

132:                                              ; preds = %129
  %133 = call i32 @av_log_get_flags()
  store i32 %133, ptr %11, align 4, !tbaa !10
  br label %134

134:                                              ; preds = %132, %129
  br label %135

135:                                              ; preds = %134, %126
  br label %136

136:                                              ; preds = %135
  store i32 0, ptr %14, align 4, !tbaa !10
  br label %137

137:                                              ; preds = %157, %136
  %138 = load i32, ptr %14, align 4, !tbaa !10
  %139 = sext i32 %138 to i64
  %140 = icmp ult i64 %139, 9
  br i1 %140, label %141, label %160

141:                                              ; preds = %137
  %142 = load i32, ptr %14, align 4, !tbaa !10
  %143 = sext i32 %142 to i64
  %144 = getelementptr inbounds [9 x %struct.anon], ptr %8, i64 0, i64 %143
  %145 = getelementptr inbounds nuw %struct.anon, ptr %144, i32 0, i32 0
  %146 = load ptr, ptr %145, align 16, !tbaa !149
  %147 = load ptr, ptr %7, align 8, !tbaa !8
  %148 = call i32 @strcmp(ptr noundef %146, ptr noundef %147) #12
  %149 = icmp ne i32 %148, 0
  br i1 %149, label %156, label %150

150:                                              ; preds = %141
  %151 = load i32, ptr %14, align 4, !tbaa !10
  %152 = sext i32 %151 to i64
  %153 = getelementptr inbounds [9 x %struct.anon], ptr %8, i64 0, i64 %152
  %154 = getelementptr inbounds nuw %struct.anon, ptr %153, i32 0, i32 1
  %155 = load i32, ptr %154, align 8, !tbaa !151
  store i32 %155, ptr %12, align 4, !tbaa !10
  br label %184

156:                                              ; preds = %141
  br label %157

157:                                              ; preds = %156
  %158 = load i32, ptr %14, align 4, !tbaa !10
  %159 = add nsw i32 %158, 1
  store i32 %159, ptr %14, align 4, !tbaa !10
  br label %137, !llvm.loop !152

160:                                              ; preds = %137
  %161 = load ptr, ptr %7, align 8, !tbaa !8
  %162 = call i64 @strtol(ptr noundef %161, ptr noundef %10, i32 noundef 10) #11
  %163 = trunc i64 %162 to i32
  store i32 %163, ptr %12, align 4, !tbaa !10
  %164 = load ptr, ptr %10, align 8, !tbaa !8
  %165 = load i8, ptr %164, align 1, !tbaa !17
  %166 = icmp ne i8 %165, 0
  br i1 %166, label %167, label %183

167:                                              ; preds = %160
  %168 = load ptr, ptr %7, align 8, !tbaa !8
  call void (ptr, i32, ptr, ...) @av_log(ptr noundef null, i32 noundef 8, ptr noundef @.str.65, ptr noundef %168)
  store i32 0, ptr %14, align 4, !tbaa !10
  br label %169

169:                                              ; preds = %179, %167
  %170 = load i32, ptr %14, align 4, !tbaa !10
  %171 = sext i32 %170 to i64
  %172 = icmp ult i64 %171, 9
  br i1 %172, label %173, label %182

173:                                              ; preds = %169
  %174 = load i32, ptr %14, align 4, !tbaa !10
  %175 = sext i32 %174 to i64
  %176 = getelementptr inbounds [9 x %struct.anon], ptr %8, i64 0, i64 %175
  %177 = getelementptr inbounds nuw %struct.anon, ptr %176, i32 0, i32 0
  %178 = load ptr, ptr %177, align 16, !tbaa !149
  call void (ptr, i32, ptr, ...) @av_log(ptr noundef null, i32 noundef 8, ptr noundef @.str.66, ptr noundef %178)
  br label %179

179:                                              ; preds = %173
  %180 = load i32, ptr %14, align 4, !tbaa !10
  %181 = add nsw i32 %180, 1
  store i32 %181, ptr %14, align 4, !tbaa !10
  br label %169, !llvm.loop !153

182:                                              ; preds = %169
  call void (ptr, i32, ptr, ...) @av_log(ptr noundef null, i32 noundef 8, ptr noundef @.str.67)
  call void (ptr, i32, ptr, ...) @av_log(ptr noundef null, i32 noundef 8, ptr noundef @.str.68)
  call void (ptr, i32, ptr, ...) @av_log(ptr noundef null, i32 noundef 8, ptr noundef @.str.69)
  call void (ptr, i32, ptr, ...) @av_log(ptr noundef null, i32 noundef 8, ptr noundef @.str.70)
  call void (ptr, i32, ptr, ...) @av_log(ptr noundef null, i32 noundef 8, ptr noundef @.str.71)
  store i32 -22, ptr %4, align 4
  store i32 1, ptr %15, align 4
  br label %187

183:                                              ; preds = %160
  br label %184

184:                                              ; preds = %183, %150, %120
  %185 = load i32, ptr %11, align 4, !tbaa !10
  call void @av_log_set_flags(i32 noundef %185)
  %186 = load i32, ptr %12, align 4, !tbaa !10
  call void @av_log_set_level(i32 noundef %186)
  store i32 0, ptr %4, align 4
  store i32 1, ptr %15, align 4
  br label %187

187:                                              ; preds = %184, %182
  call void @llvm.lifetime.end.p0(i64 4, ptr %14) #11
  call void @llvm.lifetime.end.p0(i64 4, ptr %13) #11
  call void @llvm.lifetime.end.p0(i64 4, ptr %12) #11
  call void @llvm.lifetime.end.p0(i64 4, ptr %11) #11
  call void @llvm.lifetime.end.p0(i64 8, ptr %10) #11
  call void @llvm.lifetime.end.p0(i64 8, ptr %9) #11
  call void @llvm.lifetime.end.p0(i64 144, ptr %8) #11
  %188 = load i32, ptr %4, align 4
  ret i32 %188
}