; Function Attrs: nounwind uwtable
define range(i32 -22, 1) i32 @opt_loglevel(ptr noundef readnone captures(none) %0, ptr noundef readnone captures(none) %1, ptr noundef %2) local_unnamed_addr #2 {
  %4 = alloca ptr, align 8
  %5 = alloca ptr, align 8
  store ptr %2, ptr %4, align 8, !tbaa !13
  call void @llvm.lifetime.start.p0(i64 8, ptr nonnull %5) #17
  %6 = tail call i32 @av_log_get_flags() #17
  %7 = tail call i32 @av_log_get_level() #17
  %.not = icmp eq ptr %2, null
  br i1 %.not, label %8, label %.preheader

8:                                                ; preds = %3
  tail call void (ptr, i32, ptr, ...) @av_log(ptr noundef null, i32 noundef 0, ptr noundef nonnull @.str.59, ptr noundef nonnull @.str.60, ptr noundef nonnull @.str.61, i32 noundef 1269) #17
  tail call void @abort() #19
  unreachable

.preheader:                                       ; preds = %3, %48
  %9 = phi ptr [ %.pre, %48 ], [ %2, %3 ]
  %.035 = phi i32 [ %.3, %48 ], [ %6, %3 ]
  %.0 = phi i32 [ %49, %48 ], [ 0, %3 ]
  %10 = load i8, ptr %9, align 1, !tbaa !8
  switch i8 %10, label %14 [
    i8 0, label %split.thread
    i8 43, label %11
    i8 45, label %11
  ]

11:                                               ; preds = %.preheader, %.preheader
  %12 = getelementptr inbounds nuw i8, ptr %9, i64 1
  %13 = zext nneg i8 %10 to i32
  br label %14

14:                                               ; preds = %.preheader, %11
  %.038 = phi ptr [ %12, %11 ], [ %9, %.preheader ]
  %.033 = phi i32 [ %13, %11 ], [ 0, %.preheader ]
  %15 = icmp ne i32 %.0, 0
  %16 = icmp ne i32 %.033, 0
  %or.cond = select i1 %15, i1 true, i1 %16
  %spec.select = select i1 %or.cond, i32 %.035, i32 0
  %17 = call i32 @av_strstart(ptr noundef nonnull %.038, ptr noundef nonnull @.str.62, ptr noundef nonnull %4) #17
  %.not46 = icmp eq i32 %17, 0
  br i1 %.not46, label %24, label %18

18:                                               ; preds = %14
  %19 = icmp eq i32 %.033, 45
  br i1 %19, label %20, label %22

20:                                               ; preds = %18
  %21 = or i32 %spec.select, 1
  br label %48

22:                                               ; preds = %18
  %23 = and i32 %spec.select, -2
  br label %48

24:                                               ; preds = %14
  %25 = call i32 @av_strstart(ptr noundef nonnull %.038, ptr noundef nonnull @.str.41, ptr noundef nonnull %4) #17
  %.not47 = icmp eq i32 %25, 0
  br i1 %.not47, label %32, label %26

26:                                               ; preds = %24
  %27 = icmp eq i32 %.033, 45
  br i1 %27, label %28, label %30

28:                                               ; preds = %26
  %29 = and i32 %spec.select, -3
  br label %48

30:                                               ; preds = %26
  %31 = or i32 %spec.select, 2
  br label %48

32:                                               ; preds = %24
  %33 = call i32 @av_strstart(ptr noundef nonnull %.038, ptr noundef nonnull @.str.63, ptr noundef nonnull %4) #17
  %.not48 = icmp eq i32 %33, 0
  br i1 %.not48, label %40, label %34

34:                                               ; preds = %32
  %35 = icmp eq i32 %.033, 45
  br i1 %35, label %36, label %38

36:                                               ; preds = %34
  %37 = and i32 %spec.select, -5
  br label %48

38:                                               ; preds = %34
  %39 = or i32 %spec.select, 4
  br label %48

40:                                               ; preds = %32
  %41 = call i32 @av_strstart(ptr noundef nonnull %.038, ptr noundef nonnull @.str.64, ptr noundef nonnull %4) #17
  %.not49 = icmp eq i32 %41, 0
  br i1 %.not49, label %split, label %42

42:                                               ; preds = %40
  %43 = icmp eq i32 %.033, 45
  br i1 %43, label %44, label %46

44:                                               ; preds = %42
  %45 = and i32 %spec.select, -9
  br label %48

46:                                               ; preds = %42
  %47 = or i32 %spec.select, 8
  br label %48

48:                                               ; preds = %30, %28, %46, %44, %36, %38, %20, %22
  %.3 = phi i32 [ %21, %20 ], [ %23, %22 ], [ %29, %28 ], [ %31, %30 ], [ %37, %36 ], [ %39, %38 ], [ %45, %44 ], [ %47, %46 ]
  %49 = add nuw nsw i32 %.0, 1
  %.pre = load ptr, ptr %4, align 8, !tbaa !13
  br label %.preheader, !llvm.loop !122

split:                                            ; preds = %40
  %.pre62 = load ptr, ptr %4, align 8, !tbaa !13
  %.pre63 = load i8, ptr %.pre62, align 1, !tbaa !8
  switch i8 %.pre63, label %52 [
    i8 0, label %split.thread
    i8 43, label %50
  ]

50:                                               ; preds = %split
  %51 = getelementptr inbounds nuw i8, ptr %.pre62, i64 1
  store ptr %51, ptr %4, align 8, !tbaa !13
  br label %55

52:                                               ; preds = %split
  %.not51 = icmp eq i32 %.0, 0
  br i1 %.not51, label %53, label %55

53:                                               ; preds = %52
  %54 = call i32 @av_log_get_flags() #17
  %.pre64 = load ptr, ptr %4, align 8, !tbaa !13
  br label %55

55:                                               ; preds = %50, %53, %52
  %56 = phi ptr [ %51, %50 ], [ %.pre62, %52 ], [ %.pre64, %53 ]
  %.5 = phi i32 [ %spec.select, %50 ], [ %spec.select, %52 ], [ %54, %53 ]
  br label %58

57:                                               ; preds = %58
  %indvars.iv.next = add nuw nsw i64 %indvars.iv, 1
  %exitcond.not = icmp eq i64 %indvars.iv.next, 9
  br i1 %exitcond.not, label %65, label %58, !llvm.loop !123

58:                                               ; preds = %55, %57
  %indvars.iv = phi i64 [ 0, %55 ], [ %indvars.iv.next, %57 ]
  %59 = getelementptr inbounds nuw [9 x %struct.anon], ptr @__const.opt_loglevel.log_levels, i64 0, i64 %indvars.iv
  %60 = load ptr, ptr %59, align 16, !tbaa !124
  %61 = call i32 @strcmp(ptr noundef nonnull dereferenceable(1) %60, ptr noundef nonnull dereferenceable(1) %56) #18
  %.not53 = icmp eq i32 %61, 0
  br i1 %.not53, label %62, label %57

62:                                               ; preds = %58
  %63 = getelementptr inbounds nuw i8, ptr %59, i64 8
  %64 = load i32, ptr %63, align 8, !tbaa !126
  br label %split.thread

65:                                               ; preds = %57
  %66 = call i64 @strtol(ptr noundef nonnull %56, ptr noundef nonnull %5, i32 noundef 10) #17
  %67 = trunc i64 %66 to i32
  %68 = load ptr, ptr %5, align 8, !tbaa !13
  %69 = load i8, ptr %68, align 1, !tbaa !8
  %.not52 = icmp eq i8 %69, 0
  br i1 %.not52, label %split.thread, label %70

70:                                               ; preds = %65
  %71 = load ptr, ptr %4, align 8, !tbaa !13
  call void (ptr, i32, ptr, ...) @av_log(ptr noundef null, i32 noundef 8, ptr noundef nonnull @.str.65, ptr noundef %71) #17
  br label %72

72:                                               ; preds = %70, %72
  %indvars.iv58 = phi i64 [ 0, %70 ], [ %indvars.iv.next59, %72 ]
  %73 = getelementptr inbounds nuw [9 x %struct.anon], ptr @__const.opt_loglevel.log_levels, i64 0, i64 %indvars.iv58
  %74 = load ptr, ptr %73, align 16, !tbaa !124
  call void (ptr, i32, ptr, ...) @av_log(ptr noundef null, i32 noundef 8, ptr noundef nonnull @.str.66, ptr noundef %74) #17
  %indvars.iv.next59 = add nuw nsw i64 %indvars.iv58, 1
  %exitcond61.not = icmp eq i64 %indvars.iv.next59, 9
  br i1 %exitcond61.not, label %75, label %72, !llvm.loop !127

75:                                               ; preds = %72
  call void (ptr, i32, ptr, ...) @av_log(ptr noundef null, i32 noundef 8, ptr noundef nonnull @.str.67) #17
  call void (ptr, i32, ptr, ...) @av_log(ptr noundef null, i32 noundef 8, ptr noundef nonnull @.str.68) #17
  call void (ptr, i32, ptr, ...) @av_log(ptr noundef null, i32 noundef 8, ptr noundef nonnull @.str.69) #17
  call void (ptr, i32, ptr, ...) @av_log(ptr noundef null, i32 noundef 8, ptr noundef nonnull @.str.70) #17
  call void (ptr, i32, ptr, ...) @av_log(ptr noundef null, i32 noundef 8, ptr noundef nonnull @.str.71) #17
  br label %76

split.thread:                                     ; preds = %.preheader, %split, %65, %62
  %.4 = phi i32 [ %.5, %62 ], [ %.5, %65 ], [ %spec.select, %split ], [ %.035, %.preheader ]
  %.034 = phi i32 [ %64, %62 ], [ %67, %65 ], [ %7, %split ], [ %7, %.preheader ]
  call void @av_log_set_flags(i32 noundef %.4) #17
  call void @av_log_set_level(i32 noundef %.034) #17
  br label %76

76:                                               ; preds = %split.thread, %75
  %.039 = phi i32 [ 0, %split.thread ], [ -22, %75 ]
  call void @llvm.lifetime.end.p0(i64 8, ptr nonnull %5) #17
  ret i32 %.039
}